; Function Attrs: mustprogress uwtable
define hidden void @_ZN4cvc58internal6theory11quantifiers4inst7Trigger5resetENS0_12NodeTemplateILb1EEE(ptr noundef nonnull readonly align 8 captures(none) dereferenceable(192) %0, ptr noundef readonly captures(none) %1) local_unnamed_addr #3 align 2 personality ptr @__gxx_personality_v0 {
  %3 = alloca %"class.cvc5::internal::NodeTemplate", align 8
  %4 = getelementptr inbounds nuw i8, ptr %0, i64 112
  %5 = load ptr, ptr %4, align 8, !tbaa !54
  %6 = load ptr, ptr %1, align 8, !tbaa !11
  store ptr %6, ptr %3, align 8, !tbaa !11
  %7 = load i64, ptr %6, align 8
  %8 = lshr i64 %7, 40
  %9 = trunc nuw nsw i64 %8 to i32
  %10 = and i32 %9, 1048575
  %11 = icmp samesign ult i32 %10, 1048574
  br i1 %11, label %12, label %17, !prof !21

12:                                               ; preds = %2
  %13 = add i64 %7, 1099511627776
  %14 = and i64 %13, 1152920405095219200
  %15 = and i64 %7, -1152920405095219201
  %16 = or disjoint i64 %14, %15
  store i64 %16, ptr %6, align 8
  br label %_ZN4cvc58internal12NodeTemplateILb1EEC2ERKS2_.exit

17:                                               ; preds = %2
  %18 = icmp eq i32 %10, 1048574
  br i1 %18, label %19, label %_ZN4cvc58internal12NodeTemplateILb1EEC2ERKS2_.exit, !prof !22

19:                                               ; preds = %17
  %20 = or i64 %7, 1152920405095219200
  store i64 %20, ptr %6, align 8
  tail call void @_ZN4cvc58internal4expr9NodeValue20markRefCountMaxedOutEv(ptr noundef nonnull align 8 dereferenceable(24) %6)
  br label %_ZN4cvc58internal12NodeTemplateILb1EEC2ERKS2_.exit

_ZN4cvc58internal12NodeTemplateILb1EEC2ERKS2_.exit: ; preds = %12, %17, %19
  %21 = load ptr, ptr %5, align 8, !tbaa !3
  %22 = getelementptr inbounds nuw i8, ptr %21, i64 24
  %23 = load ptr, ptr %22, align 8
  %24 = invoke noundef zeroext i1 %23(ptr noundef nonnull align 8 dereferenceable(40) %5, ptr noundef nonnull %3)
          to label %25 unwind label %39

25:                                               ; preds = %_ZN4cvc58internal12NodeTemplateILb1EEC2ERKS2_.exit
  %26 = load ptr, ptr %3, align 8, !tbaa !11
  %27 = load i64, ptr %26, align 8
  %28 = and i64 %27, 1152920405095219200
  %.not.i.i = icmp eq i64 %28, 1152920405095219200
  br i1 %.not.i.i, label %_ZN4cvc58internal12NodeTemplateILb1EED2Ev.exit, label %29, !prof !22

29:                                               ; preds = %25
  %30 = add i64 %27, 1152920405095219200
  %31 = and i64 %30, 1152920405095219200
  %32 = and i64 %27, -1152920405095219201
  %33 = or disjoint i64 %31, %32
  store i64 %33, ptr %26, align 8
  %34 = icmp eq i64 %31, 0
  br i1 %34, label %35, label %_ZN4cvc58internal12NodeTemplateILb1EED2Ev.exit, !prof !22

35:                                               ; preds = %29
  invoke void @_ZN4cvc58internal4expr9NodeValue15markForDeletionEv(ptr noundef nonnull align 8 dereferenceable(24) %26)
          to label %_ZN4cvc58internal12NodeTemplateILb1EED2Ev.exit unwind label %36

36:                                               ; preds = %35
  %37 = landingpad { ptr, i32 }
          catch ptr null
  %38 = extractvalue { ptr, i32 } %37, 0
  call void @__clang_call_terminate(ptr %38) #22
  unreachable

_ZN4cvc58internal12NodeTemplateILb1EED2Ev.exit:   ; preds = %25, %29, %35
  ret void

39:                                               ; preds = %_ZN4cvc58internal12NodeTemplateILb1EEC2ERKS2_.exit
  %40 = landingpad { ptr, i32 }
          cleanup
  call void @_ZN4cvc58internal12NodeTemplateILb1EED2Ev(ptr noundef nonnull align 8 dereferenceable(8) %3) #20
  resume { ptr, i32 } %40
}